target datalayout = "e-m:e-p270:32:32-p271:32:32-p272:64:64-i64:64-i128:128-f80:128-n8:16:32:64-S128"
target triple = "x86_64-unknown-linux-gnu"

%struct.HIDState = type { %union.anon, i32, i32, i32, i32, i8, i8, ptr, ptr, ptr }
%union.anon = type { %struct.HIDMouseState }
%struct.HIDMouseState = type { [16 x %struct.HIDPointerEvent], i32 }
%struct.HIDPointerEvent = type { i32, i32, i32, i32 }

; Function Attrs: nounwind sspstrong uwtable
define internal void @hid_idle_timer(ptr noundef %opaque) #0 {
entry:
  %opaque.addr = alloca ptr, align 8
  %hs = alloca ptr, align 8
  store ptr %opaque, ptr %opaque.addr, align 8
  %0 = load ptr, ptr %opaque.addr, align 8
  store ptr %0, ptr %hs, align 8
  %1 = load ptr, ptr %hs, align 8
  %idle_pending = getelementptr inbounds %struct.HIDState, ptr %1, i32 0, i32 6
  store i8 1, ptr %idle_pending, align 1
  %2 = load ptr, ptr %hs, align 8
  %event = getelementptr inbounds %struct.HIDState, ptr %2, i32 0, i32 8
  %3 = load ptr, ptr %event, align 8
  %4 = load ptr, ptr %hs, align 8
  call void %3(ptr noundef %4)
  ret void
}