; Function Attrs: nounwind sspstrong uwtable
define internal void @hid_idle_timer(ptr noundef initializes((277, 278)) %opaque) #1 {
entry:
  %idle_pending = getelementptr inbounds nuw i8, ptr %opaque, i64 277
  store i8 1, ptr %idle_pending, align 1
  %event = getelementptr inbounds nuw i8, ptr %opaque, i64 288
  %0 = load ptr, ptr %event, align 8
  tail call void %0(ptr noundef %opaque) #11
  ret void
}